Certificate:
    Data:
        Version: 3 (0x2)
        Serial Number:
            74:67:6c:f0:9d:c0:41:7b:1d:b8:f3:1f:94:e6:5b:91:ac:65:50:ea
        Signature Algorithm: sha256WithRSAEncryption
        Issuer: C = US, ST = California, L = San Francisco, O = "Cloudflare, Inc.", OU = www.cloudflare.com, CN = Managed CA 8e1b1ee018bd6870366f9bfddd0187d9
        Validity
            Not Before: Apr  4 21:30:00 2023 GMT
            Not After : Apr  1 21:30:00 2033 GMT
        Subject: C = US, CN = Cloudflare
        Subject Public Key Info:
            Public Key Algorithm: rsaEncryption
                RSA Public-Key: (2048 bit)
                Modulus:
                    00:a9:0e:c5:4e:22:1e:fc:f7:53:1d:60:8f:e6:6b:
                    a4:97:d3:15:d5:7f:6a:57:6d:6c:e8:00:6c:11:c8:
                    57:0f:02:d8:35:0e:b1:58:1a:2b:d9:62:00:a9:56:
                    7e:cf:eb:a0:ff:1c:81:a8:03:3a:54:e0:f9:fb:53:
                    72:1f:e8:07:8f:74:ce:34:bf:ca:09:39:4e:51:32:
                    38:db:c5:64:95:ac:6a:01:97:65:dc:14:2d:40:b5:
                    b5:6b:29:b5:eb:b5:ed:5b:b9:19:73:d3:5f:38:98:
                    27:aa:5a:af:07:df:10:6c:4b:4f:5c:28:1a:4c:e8:
                    37:c4:c2:ec:3d:81:06:73:1b:86:06:2b:de:d7:a2:
                    7a:37:04:27:08:6b:1c:c1:b1:f6:1a:d1:5c:98:b1:
                    ee:a7:ce:da:fa:e4:6a:67:ab:7d:34:c9:91:9f:a7:
                    9a:05:9e:5b:0c:89:33:ee:f9:77:87:04:92:3f:eb:
                    29:8a:23:95:8e:29:f6:c6:3d:4c:cd:e9:86:21:8d:
                    95:d9:87:5d:ab:46:03:f0:e7:df:14:40:37:2d:e4:
                    58:c6:ac:af:59:e0:d7:89:13:ec:f2:a9:f5:24:31:
                    f6:4d:93:0f:4f:36:a1:89:dd:d4:f2:cd:92:eb:00:
                    18:dc:94:ea:00:78:7f:17:16:4d:bc:bd:55:5a:c3:
                    50:79
                Exponent: 65537 (0x10001)
        X509v3 extensions:
            X509v3 Extended Key Usage: 
                TLS Web Client Authentication
            X509v3 Basic Constraints: critical
                CA:FALSE
            X509v3 Subject Key Identifier: 
                9F:F5:03:E3:DA:92:CE:A0:33:E7:9C:FF:B7:00:A6:7A:76:ED:75:37
            X509v3 Authority Key Identifier: 
                keyid:3D:6F:2E:0F:DE:D2:FA:5E:BE:08:D8:72:77:A2:5F:F1:1D:3C:C7:05

            X509v3 CRL Distribution Points: 

                Full Name:
                  URI:http://crl.cloudflare.com/3ab19551-7fc7-4d7e-8d91-3eb62788cc67.crl

    Signature Algorithm: sha256WithRSAEncryption
         07:6e:9e:6d:f1:bf:33:45:4e:09:45:b1:40:cf:c6:8c:38:5a:
         66:d9:8a:34:19:6a:84:88:fb:c4:f6:a5:64:dc:ab:0b:6d:b5:
         26:1a:f3:30:cc:17:c5:64:5d:b4:fc:47:b2:a0:b7:d7:d1:4c:
         7b:ee:d7:83:2d:9a:0c:23:72:31:fe:98:bd:eb:11:e0:9c:ce:
         34:fa:f8:b1:5a:78:20:5e:dd:db:ab:38:57:55:fa:ce:9b:1b:
         16:13:e0:c5:54:57:17:d4:84:58:ef:73:5c:32:f9:f4:14:50:
         47:19:7d:00:58:01:da:3c:ff:cf:bf:e5:18:e4:09:46:07:dc:
         9b:6b:64:9b:24:a5:47:3c:ac:7b:8f:da:cf:6d:30:23:e8:80:
         ca:bc:92:c9:c3:3c:12:9b:65:0a:c5:fa:90:be:9b:28:bd:89:
         9e:b2:c4:5c:b0:3e:e5:6b:17:4d:e8:96:ab:1f:c4:4e:cc:04:
         5d:3b:c9:8c:54:05:8c:cc:a3:61:cc:51:9b:2d:bb:4a:65:0f:
         3f:c6:b6:32:22:c8:ec:7d:65:86:05:f4:20:f6:11:da:8b:ef:
         cd:b3:4f:2e:3d:cc:e2:24:ad:5d:e9:19:f9:ef:ba:14:08:e7:
         e7:1d:bc:ba:5a:c1:81:5b:0e:a5:61:d4:72:b6:c9:22:72:f9:
         9e:d9:c5:9b
-----BEGIN CERTIFICATE-----
MIIEFTCCAv2gAwIBAgIUdGds8J3AQXsduPMflOZbkaxlUOowDQYJKoZIhvcNAQEL
BQAwgagxCzAJBgNVBAYTAlVTMRMwEQYDVQQIEwpDYWxpZm9ybmlhMRYwFAYDVQQH
Ew1TYW4gRnJhbmNpc2NvMRkwFwYDVQQKExBDbG91ZGZsYXJlLCBJbmMuMRswGQYD
VQQLExJ3d3cuY2xvdWRmbGFyZS5jb20xNDAyBgNVBAMTK01hbmFnZWQgQ0EgOGUx
YjFlZTAxOGJkNjg3MDM2NmY5YmZkZGQwMTg3ZDkwHhcNMjMwNDA0MjEzMDAwWhcN
MzMwNDAxMjEzMDAwWjAiMQswCQYDVQQGEwJVUzETMBEGA1UEAxMKQ2xvdWRmbGFy
ZTCCASIwDQYJKoZIhvcNAQEBBQADggEPADCCAQoCggEBAKkOxU4iHvz3Ux1gj+Zr
pJfTFdV/aldtbOgAbBHIVw8C2DUOsVgaK9liAKlWfs/roP8cgagDOlTg+ftTch/o
B490zjS/ygk5TlEyONvFZJWsagGXZdwULUC1tWspteu17Vu5GXPTXziYJ6parwff
EGxLT1woGkzoN8TC7D2BBnMbhgYr3teiejcEJwhrHMGx9hrRXJix7qfO2vrkamer
fTTJkZ+nmgWeWwyJM+75d4cEkj/rKYojlY4p9sY9TM3phiGNldmHXatGA/Dn3xRA
Ny3kWMasr1ng14kT7PKp9SQx9k2TD082oYnd1PLNkusAGNyU6gB4fxcWTby9VVrD
UHkCAwEAAaOBuzCBuDATBgNVHSUEDDAKBggrBgEFBQcDAjAMBgNVHRMBAf8EAjAA
MB0GA1UdDgQWBBSf9QPj2pLOoDPnnP+3AKZ6du11NzAfBgNVHSMEGDAWgBQ9by4P
3tL6Xr4I2HJ3ol/xHTzHBTBTBgNVHR8ETDBKMEigRqBEhkJodHRwOi8vY3JsLmNs
b3VkZmxhcmUuY29tLzNhYjE5NTUxLTdmYzctNGQ3ZS04ZDkxLTNlYjYyNzg4Y2M2
Ny5jcmwwDQYJKoZIhvcNAQELBQADggEBAAdunm3xvzNFTglFsUDPxow4WmbZijQZ
aoSI+8T2pWTcqwtttSYa8zDMF8VkXbT8R7Kgt9fRTHvu14MtmgwjcjH+mL3rEeCc
zjT6+LFaeCBe3durOFdV+s6bGxYT4MVUVxfUhFjvc1wy+fQUUEcZfQBYAdo8/8+/
5RjkCUYH3JtrZJskpUc8rHuP2s9tMCPogMq8ksnDPBKbZQrF+pC+myi9iZ6yxFyw
PuVrF03olqsfxE7MBF07yYxUBYzMo2HMUZstu0plDz/GtjIiyOx9ZYYF9CD2EdqL
782zTy49zOIkrV3pGfnvuhQI5+cdvLpawYFbDqVh1HK2ySJy+Z7ZxZs=
-----END CERTIFICATE-----
